target datalayout = "e-m:e-p270:32:32-p271:32:32-p272:64:64-i64:64-i128:128-f80:128-n8:16:32:64-S128"
target triple = "x86_64-pc-linux-gnu"

%struct._object = type { %union.anon, ptr }
%union.anon = type { i64 }
%struct.AuditRunCommandTest = type { ptr, i32 }
%struct.anon.0 = type { i32, i32 }

@PyExc_RuntimeError = external global ptr, align 8
@.str.321 = private unnamed_addr constant [4 x i8] c"%s\0A\00", align 1
@.str.324 = private unnamed_addr constant [16 x i8] c"detected %s(%R)\00", align 1

; Function Attrs: alwaysinline nounwind uwtable
define internal i32 @_Py_IsImmortal(ptr noundef %0) #9 {
  %2 = alloca ptr, align 8
  store ptr %0, ptr %2, align 8, !tbaa !80
  %3 = load ptr, ptr %2, align 8, !tbaa !80
  %4 = getelementptr inbounds nuw %struct._object, ptr %3, i32 0, i32 0
  %5 = getelementptr inbounds nuw %struct.anon.0, ptr %4, i32 0, i32 0
  %6 = load i32, ptr %5, align 8, !tbaa !100
  %7 = icmp slt i32 %6, 0
  %8 = zext i1 %7 to i32
  ret i32 %8
}

; Function Attrs: alwaysinline nounwind uwtable
define internal void @Py_DECREF(ptr noundef %0) #9 {
  %2 = alloca ptr, align 8
  store ptr %0, ptr %2, align 8, !tbaa !80
  %3 = load ptr, ptr %2, align 8, !tbaa !80
  %4 = call i32 @_Py_IsImmortal(ptr noundef %3)
  %5 = icmp ne i32 %4, 0
  br i1 %5, label %6, label %7

6:                                                ; preds = %1
  br label %16

7:                                                ; preds = %1
  %8 = load ptr, ptr %2, align 8, !tbaa !80
  %9 = getelementptr inbounds nuw %struct._object, ptr %8, i32 0, i32 0
  %10 = getelementptr inbounds nuw %struct.anon.0, ptr %9, i32 0, i32 0
  %11 = load i32, ptr %10, align 8, !tbaa !100
  %12 = add i32 %11, -1
  store i32 %12, ptr %10, align 8, !tbaa !100
  %13 = icmp eq i32 %12, 0
  br i1 %13, label %14, label %16

14:                                               ; preds = %7
  %15 = load ptr, ptr %2, align 8, !tbaa !80
  call void @_Py_Dealloc(ptr noundef %15)
  br label %16

16:                                               ; preds = %6, %14, %7
  ret void
}

; Function Attrs: nounwind uwtable
define internal i32 @_audit_hook_run(ptr noundef %0, ptr noundef %1, ptr noundef %2) #0 {
  %4 = alloca i32, align 4
  %5 = alloca ptr, align 8
  %6 = alloca ptr, align 8
  %7 = alloca ptr, align 8
  %8 = alloca ptr, align 8
  %9 = alloca i32, align 4
  %10 = alloca ptr, align 8
  store ptr %0, ptr %5, align 8, !tbaa !16
  store ptr %1, ptr %6, align 8, !tbaa !80
  store ptr %2, ptr %7, align 8, !tbaa !38
  call void @llvm.lifetime.start.p0(i64 8, ptr %8) #11
  %11 = load ptr, ptr %7, align 8, !tbaa !38
  store ptr %11, ptr %8, align 8, !tbaa !38
  %12 = load ptr, ptr %5, align 8, !tbaa !16
  %13 = load ptr, ptr %8, align 8, !tbaa !38
  %14 = getelementptr inbounds nuw %struct.AuditRunCommandTest, ptr %13, i32 0, i32 0
  %15 = load ptr, ptr %14, align 8, !tbaa !105
  %16 = call i32 @strcmp(ptr noundef %12, ptr noundef %15) #12
  %17 = icmp ne i32 %16, 0
  br i1 %17, label %18, label %19

18:                                               ; preds = %3
  store i32 0, ptr %4, align 4
  store i32 1, ptr %9, align 4
  br label %44

19:                                               ; preds = %3
  %20 = load ptr, ptr %8, align 8, !tbaa !38
  %21 = getelementptr inbounds nuw %struct.AuditRunCommandTest, ptr %20, i32 0, i32 1
  %22 = load i32, ptr %21, align 8, !tbaa !107
  %23 = icmp ne i32 %22, 0
  br i1 %23, label %24, label %39

24:                                               ; preds = %19
  call void @llvm.lifetime.start.p0(i64 8, ptr %10) #11
  %25 = load ptr, ptr %5, align 8, !tbaa !16
  %26 = load ptr, ptr %6, align 8, !tbaa !80
  %27 = call ptr (ptr, ...) @PyUnicode_FromFormat(ptr noundef @.str.324, ptr noundef %25, ptr noundef %26)
  store ptr %27, ptr %10, align 8, !tbaa !80
  %28 = load ptr, ptr %10, align 8, !tbaa !80
  %29 = icmp ne ptr %28, null
  br i1 %29, label %30, label %35

30:                                               ; preds = %24
  %31 = load ptr, ptr %10, align 8, !tbaa !80
  %32 = call ptr @PyUnicode_AsUTF8(ptr noundef %31)
  %33 = call i32 (ptr, ...) @printf(ptr noundef @.str.321, ptr noundef %32)
  %34 = load ptr, ptr %10, align 8, !tbaa !80
  call void @Py_DECREF(ptr noundef %34)
  br label %35

35:                                               ; preds = %30, %24
  %36 = load ptr, ptr %8, align 8, !tbaa !38
  %37 = getelementptr inbounds nuw %struct.AuditRunCommandTest, ptr %36, i32 0, i32 1
  %38 = load i32, ptr %37, align 8, !tbaa !107
  call void @exit(i32 noundef %38) #13
  unreachable

39:                                               ; preds = %19
  %40 = load ptr, ptr @PyExc_RuntimeError, align 8, !tbaa !80
  %41 = load ptr, ptr %5, align 8, !tbaa !16
  %42 = load ptr, ptr %6, align 8, !tbaa !80
  %43 = call ptr (ptr, ptr, ...) @PyErr_Format(ptr noundef %40, ptr noundef @.str.324, ptr noundef %41, ptr noundef %42)
  store i32 -1, ptr %4, align 4
  store i32 1, ptr %9, align 4
  br label %44

44:                                               ; preds = %39, %18
  call void @llvm.lifetime.end.p0(i64 8, ptr %8) #11
  %45 = load i32, ptr %4, align 4
  ret i32 %45
}