; Function Attrs: nounwind uwtable
define internal range(i32 -1, 1) i32 @_audit_hook_run(ptr noundef %0, ptr noundef %1, ptr noundef readonly captures(none) %2) #0 {
  %4 = load ptr, ptr %2, align 8, !tbaa !101
  %5 = tail call i32 @strcmp(ptr noundef nonnull dereferenceable(1) %0, ptr noundef nonnull dereferenceable(1) %4) #19
  %.not = icmp eq i32 %5, 0
  br i1 %.not, label %6, label %22

6:                                                ; preds = %3
  %7 = getelementptr inbounds nuw i8, ptr %2, i64 8
  %8 = load i32, ptr %7, align 8, !tbaa !103
  %.not13 = icmp eq i32 %8, 0
  br i1 %.not13, label %19, label %9

9:                                                ; preds = %6
  %10 = tail call ptr (ptr, ...) @PyUnicode_FromFormat(ptr noundef nonnull @.str.324, ptr noundef nonnull %0, ptr noundef %1) #20
  %.not14 = icmp eq ptr %10, null
  br i1 %.not14, label %Py_DECREF.exit, label %11

11:                                               ; preds = %9
  %12 = tail call ptr @PyUnicode_AsUTF8(ptr noundef nonnull %10) #20
  %puts = tail call i32 @puts(ptr nonnull dereferenceable(1) %12)
  %13 = load i32, ptr %10, align 8, !tbaa !83
  %.not.i = icmp sgt i32 %13, -1
  br i1 %.not.i, label %14, label %Py_DECREF.exit

14:                                               ; preds = %11
  %15 = add nsw i32 %13, -1
  store i32 %15, ptr %10, align 8, !tbaa !83
  %16 = icmp eq i32 %15, 0
  br i1 %16, label %17, label %Py_DECREF.exit

17:                                               ; preds = %14
  tail call void @_Py_Dealloc(ptr noundef nonnull %10) #20
  br label %Py_DECREF.exit

Py_DECREF.exit:                                   ; preds = %17, %14, %11, %9
  %18 = load i32, ptr %7, align 8, !tbaa !103
  tail call void @exit(i32 noundef %18) #24
  unreachable

19:                                               ; preds = %6
  %20 = load ptr, ptr @PyExc_RuntimeError, align 8, !tbaa !84
  %21 = tail call ptr (ptr, ptr, ...) @PyErr_Format(ptr noundef %20, ptr noundef nonnull @.str.324, ptr noundef nonnull %0, ptr noundef %1) #20
  br label %22

22:                                               ; preds = %3, %19
  %.0 = phi i32 [ -1, %19 ], [ 0, %3 ]
  ret i32 %.0
}